target datalayout = "e-m:e-p270:32:32-p271:32:32-p272:64:64-i64:64-i128:128-f80:128-n8:16:32:64-S128"
target triple = "x86_64-pc-linux-gnu"

%struct.added_obj_st = type { i32, ptr }
%struct.asn1_object_st = type { ptr, ptr, i32, i32, ptr, i32 }

@added = internal global ptr null, align 8
@.str = private unnamed_addr constant [36 x i8] c"../openssl/crypto/objects/obj_dat.c\00", align 1
@__func__.OBJ_nid2obj = private unnamed_addr constant [12 x i8] c"OBJ_nid2obj\00", align 1
@ossl_obj_lock = internal global ptr null, align 8
@ossl_obj_lock_init = internal global i32 0, align 4
@obj_lock_initialise_ossl_ret_ = internal global i32 0, align 4

; Function Attrs: inlinehint nounwind uwtable
define internal i32 @ossl_init_added_lock() #1 {
  %1 = call i32 @OPENSSL_init_crypto(i64 noundef 64, ptr noundef null)
  %2 = call i32 @CRYPTO_THREAD_run_once(ptr noundef @ossl_obj_lock_init, ptr noundef @obj_lock_initialise_ossl_)
  %3 = icmp ne i32 %2, 0
  br i1 %3, label %4, label %6

4:                                                ; preds = %0
  %5 = load i32, ptr @obj_lock_initialise_ossl_ret_, align 4, !tbaa !21
  br label %7

6:                                                ; preds = %0
  br label %7

7:                                                ; preds = %6, %4
  %8 = phi i32 [ %5, %4 ], [ 0, %6 ]
  ret i32 %8
}

; Function Attrs: inlinehint nounwind uwtable
define internal void @ossl_obj_unlock(i32 noundef %0) #1 {
  %2 = alloca i32, align 4
  store i32 %0, ptr %2, align 4, !tbaa !21
  %3 = load i32, ptr %2, align 4, !tbaa !21
  %4 = icmp ne i32 %3, 0
  br i1 %4, label %5, label %8

5:                                                ; preds = %1
  %6 = load ptr, ptr @ossl_obj_lock, align 8, !tbaa !10
  %7 = call i32 @CRYPTO_THREAD_unlock(ptr noundef %6)
  br label %8

8:                                                ; preds = %5, %1
  ret void
}

; Function Attrs: inlinehint nounwind uwtable
define internal ptr @lh_ADDED_OBJ_retrieve(ptr noundef %0, ptr noundef %1) #1 {
  %3 = alloca ptr, align 8
  %4 = alloca ptr, align 8
  store ptr %0, ptr %3, align 8, !tbaa !3
  store ptr %1, ptr %4, align 8, !tbaa !11
  %5 = load ptr, ptr %3, align 8, !tbaa !3
  %6 = load ptr, ptr %4, align 8, !tbaa !11
  %7 = call ptr @OPENSSL_LH_retrieve(ptr noundef %5, ptr noundef %6)
  ret ptr %7
}

; Function Attrs: inlinehint nounwind uwtable
define internal i32 @ossl_obj_read_lock(i32 noundef %0) #1 {
  %2 = alloca i32, align 4
  %3 = alloca i32, align 4
  store i32 %0, ptr %3, align 4, !tbaa !21
  %4 = load i32, ptr %3, align 4, !tbaa !21
  %5 = icmp ne i32 %4, 0
  br i1 %5, label %7, label %6

6:                                                ; preds = %1
  store i32 1, ptr %2, align 4
  br label %14

7:                                                ; preds = %1
  %8 = call i32 @ossl_init_added_lock()
  %9 = icmp ne i32 %8, 0
  br i1 %9, label %11, label %10

10:                                               ; preds = %7
  store i32 0, ptr %2, align 4
  br label %14

11:                                               ; preds = %7
  %12 = load ptr, ptr @ossl_obj_lock, align 8, !tbaa !10
  %13 = call i32 @CRYPTO_THREAD_read_lock(ptr noundef %12)
  store i32 %13, ptr %2, align 4
  br label %14

14:                                               ; preds = %11, %10, %6
  %15 = load i32, ptr %2, align 4
  ret i32 %15
}

; Function Attrs: nounwind uwtable
define ptr @OBJ_nid2obj(i32 noundef %0) #0 {
  %2 = alloca ptr, align 8
  %3 = alloca i32, align 4
  %4 = alloca %struct.added_obj_st, align 8
  %5 = alloca ptr, align 8
  %6 = alloca %struct.asn1_object_st, align 8
  %7 = alloca i32, align 4
  store i32 %0, ptr %3, align 4, !tbaa !21
  call void @llvm.lifetime.start.p0(i64 16, ptr %4) #6
  call void @llvm.lifetime.start.p0(i64 8, ptr %5) #6
  store ptr null, ptr %5, align 8, !tbaa !11
  call void @llvm.lifetime.start.p0(i64 40, ptr %6) #6
  %8 = load i32, ptr %3, align 4, !tbaa !21
  %9 = icmp eq i32 %8, 0
  br i1 %9, label %23, label %10

10:                                               ; preds = %1
  %11 = load i32, ptr %3, align 4, !tbaa !21
  %12 = icmp sgt i32 %11, 0
  br i1 %12, label %13, label %27

13:                                               ; preds = %10
  %14 = load i32, ptr %3, align 4, !tbaa !21
  %15 = icmp slt i32 %14, 1487
  br i1 %15, label %16, label %27

16:                                               ; preds = %13
  %17 = load i32, ptr %3, align 4, !tbaa !21
  %18 = sext i32 %17 to i64
  %19 = getelementptr inbounds [1487 x %struct.asn1_object_st], ptr @nid_objs, i64 0, i64 %18
  %20 = getelementptr inbounds nuw %struct.asn1_object_st, ptr %19, i32 0, i32 2
  %21 = load i32, ptr %20, align 8, !tbaa !17
  %22 = icmp ne i32 %21, 0
  br i1 %22, label %23, label %27

23:                                               ; preds = %16, %1
  %24 = load i32, ptr %3, align 4, !tbaa !21
  %25 = sext i32 %24 to i64
  %26 = getelementptr inbounds [1487 x %struct.asn1_object_st], ptr @nid_objs, i64 0, i64 %25
  store ptr %26, ptr %2, align 8
  store i32 1, ptr %7, align 4
  br label %49

27:                                               ; preds = %16, %13, %10
  %28 = getelementptr inbounds nuw %struct.added_obj_st, ptr %4, i32 0, i32 0
  store i32 3, ptr %28, align 8, !tbaa !22
  %29 = getelementptr inbounds nuw %struct.added_obj_st, ptr %4, i32 0, i32 1
  store ptr %6, ptr %29, align 8, !tbaa !13
  %30 = load i32, ptr %3, align 4, !tbaa !21
  %31 = getelementptr inbounds nuw %struct.asn1_object_st, ptr %6, i32 0, i32 2
  store i32 %30, ptr %31, align 8, !tbaa !17
  %32 = call i32 @ossl_obj_read_lock(i32 noundef 1)
  %33 = icmp ne i32 %32, 0
  br i1 %33, label %35, label %34

34:                                               ; preds = %27
  call void @ERR_new()
  call void @ERR_set_debug(ptr noundef @.str, i32 noundef 343, ptr noundef @__func__.OBJ_nid2obj)
  call void (i32, i32, ptr, ...) @ERR_set_error(i32 noundef 8, i32 noundef 786703, ptr noundef null)
  store ptr null, ptr %2, align 8
  store i32 1, ptr %7, align 4
  br label %49

35:                                               ; preds = %27
  %36 = load ptr, ptr @added, align 8, !tbaa !3
  %37 = icmp ne ptr %36, null
  br i1 %37, label %38, label %41

38:                                               ; preds = %35
  %39 = load ptr, ptr @added, align 8, !tbaa !3
  %40 = call ptr @lh_ADDED_OBJ_retrieve(ptr noundef %39, ptr noundef %4)
  store ptr %40, ptr %5, align 8, !tbaa !11
  br label %41

41:                                               ; preds = %38, %35
  call void @ossl_obj_unlock(i32 noundef 1)
  %42 = load ptr, ptr %5, align 8, !tbaa !11
  %43 = icmp ne ptr %42, null
  br i1 %43, label %44, label %48

44:                                               ; preds = %41
  %45 = load ptr, ptr %5, align 8, !tbaa !11
  %46 = getelementptr inbounds nuw %struct.added_obj_st, ptr %45, i32 0, i32 1
  %47 = load ptr, ptr %46, align 8, !tbaa !13
  store ptr %47, ptr %2, align 8
  store i32 1, ptr %7, align 4
  br label %49

48:                                               ; preds = %41
  call void @ERR_new()
  call void @ERR_set_debug(ptr noundef @.str, i32 noundef 352, ptr noundef @__func__.OBJ_nid2obj)
  call void (i32, i32, ptr, ...) @ERR_set_error(i32 noundef 8, i32 noundef 101, ptr noundef null)
  store ptr null, ptr %2, align 8
  store i32 1, ptr %7, align 4
  br label %49

49:                                               ; preds = %48, %44, %34, %23
  call void @llvm.lifetime.end.p0(i64 40, ptr %6) #6
  call void @llvm.lifetime.end.p0(i64 8, ptr %5) #6
  call void @llvm.lifetime.end.p0(i64 16, ptr %4) #6
  %50 = load ptr, ptr %2, align 8
  ret ptr %50
}