; Function Attrs: nounwind uwtable
define ptr @OBJ_nid2obj(i32 noundef %0) local_unnamed_addr #0 {
  %2 = alloca %struct.added_obj_st, align 8
  %3 = alloca %struct.asn1_object_st, align 8
  call void @llvm.lifetime.start.p0(i64 16, ptr nonnull %2) #10
  call void @llvm.lifetime.start.p0(i64 40, ptr nonnull %3) #10
  %4 = icmp eq i32 %0, 0
  br i1 %4, label %._crit_edge, label %5

5:                                                ; preds = %1
  %or.cond = icmp ult i32 %0, 1487
  br i1 %or.cond, label %6, label %11

6:                                                ; preds = %5
  %7 = zext nneg i32 %0 to i64
  %8 = getelementptr inbounds nuw [1487 x %struct.asn1_object_st], ptr @nid_objs, i64 0, i64 %7, i32 2
  %9 = load i32, ptr %8, align 8, !tbaa !13
  %.not = icmp eq i32 %9, 0
  br i1 %.not, label %11, label %._crit_edge

._crit_edge:                                      ; preds = %1, %6
  %.pre-phi = phi i64 [ %7, %6 ], [ 0, %1 ]
  %10 = getelementptr inbounds nuw [1487 x %struct.asn1_object_st], ptr @nid_objs, i64 0, i64 %.pre-phi
  br label %31

11:                                               ; preds = %6, %5
  store i32 3, ptr %2, align 8, !tbaa !17
  %12 = getelementptr inbounds nuw i8, ptr %2, i64 8
  store ptr %3, ptr %12, align 8, !tbaa !9
  %13 = getelementptr inbounds nuw i8, ptr %3, i64 16
  store i32 %0, ptr %13, align 8, !tbaa !13
  %14 = call i32 @OPENSSL_init_crypto(i64 noundef 64, ptr noundef null) #10
  %15 = call i32 @CRYPTO_THREAD_run_once(ptr noundef nonnull @ossl_obj_lock_init, ptr noundef nonnull @obj_lock_initialise_ossl_) #10
  %.not.i.i = icmp eq i32 %15, 0
  %16 = load i32, ptr @obj_lock_initialise_ossl_ret_, align 4
  %.not23.i = icmp eq i32 %16, 0
  %.not2.i = select i1 %.not.i.i, i1 true, i1 %.not23.i
  br i1 %.not2.i, label %ossl_obj_read_lock.exit.thread, label %ossl_obj_read_lock.exit

ossl_obj_read_lock.exit:                          ; preds = %11
  %17 = load ptr, ptr @ossl_obj_lock, align 8, !tbaa !8
  %18 = call i32 @CRYPTO_THREAD_read_lock(ptr noundef %17) #10
  %.not12 = icmp eq i32 %18, 0
  br i1 %.not12, label %ossl_obj_read_lock.exit.thread, label %19

ossl_obj_read_lock.exit.thread:                   ; preds = %11, %ossl_obj_read_lock.exit
  call void @ERR_new() #10
  call void @ERR_set_debug(ptr noundef nonnull @.str, i32 noundef 343, ptr noundef nonnull @__func__.OBJ_nid2obj) #10
  call void (i32, i32, ptr, ...) @ERR_set_error(i32 noundef 8, i32 noundef 786703, ptr noundef null) #10
  br label %31

19:                                               ; preds = %ossl_obj_read_lock.exit
  %20 = load ptr, ptr @added, align 8, !tbaa !3
  %.not13 = icmp eq ptr %20, null
  br i1 %.not13, label %.thread, label %23

.thread:                                          ; preds = %19
  %21 = load ptr, ptr @ossl_obj_lock, align 8, !tbaa !8
  %22 = call i32 @CRYPTO_THREAD_unlock(ptr noundef %21) #10
  br label %30

23:                                               ; preds = %19
  %24 = call ptr @OPENSSL_LH_retrieve(ptr noundef nonnull %20, ptr noundef nonnull %2) #10
  %25 = load ptr, ptr @ossl_obj_lock, align 8, !tbaa !8
  %26 = call i32 @CRYPTO_THREAD_unlock(ptr noundef %25) #10
  %.not14 = icmp eq ptr %24, null
  br i1 %.not14, label %30, label %27

27:                                               ; preds = %23
  %28 = getelementptr inbounds nuw i8, ptr %24, i64 8
  %29 = load ptr, ptr %28, align 8, !tbaa !9
  br label %31

30:                                               ; preds = %.thread, %23
  call void @ERR_new() #10
  call void @ERR_set_debug(ptr noundef nonnull @.str, i32 noundef 352, ptr noundef nonnull @__func__.OBJ_nid2obj) #10
  call void (i32, i32, ptr, ...) @ERR_set_error(i32 noundef 8, i32 noundef 101, ptr noundef null) #10
  br label %31

31:                                               ; preds = %30, %27, %ossl_obj_read_lock.exit.thread, %._crit_edge
  %.09 = phi ptr [ %10, %._crit_edge ], [ %29, %27 ], [ null, %30 ], [ null, %ossl_obj_read_lock.exit.thread ]
  call void @llvm.lifetime.end.p0(i64 40, ptr nonnull %3) #10
  call void @llvm.lifetime.end.p0(i64 16, ptr nonnull %2) #10
  ret ptr %.09
}